; Function Attrs: mustprogress nounwind uwtable
define dso_local void @_ZN3igl8MshSaverD2Ev(ptr noundef nonnull align 8 dereferenceable(536) %0) unnamed_addr #6 align 2 personality ptr @__gxx_personality_v0 {
  %2 = getelementptr inbounds nuw i8, ptr %0, i64 24
  %3 = getelementptr inbounds nuw i8, ptr %0, i64 32
  %4 = invoke noundef ptr @_ZNSt13basic_filebufIcSt11char_traitsIcEE5closeEv(ptr noundef nonnull align 8 dereferenceable(240) %3)
          to label %.noexc unwind label %13

.noexc:                                           ; preds = %1
  %.not.i = icmp eq ptr %4, null
  br i1 %.not.i, label %5, label %_ZNSt14basic_ofstreamIcSt11char_traitsIcEE5closeEv.exit

5:                                                ; preds = %.noexc
  %6 = load ptr, ptr %2, align 8, !tbaa !29
  %7 = getelementptr i8, ptr %6, i64 -24
  %8 = load i64, ptr %7, align 8
  %9 = getelementptr inbounds i8, ptr %2, i64 %8
  %10 = getelementptr inbounds nuw i8, ptr %9, i64 32
  %11 = load i32, ptr %10, align 8, !tbaa !31
  %12 = or i32 %11, 4
  invoke void @_ZNSt9basic_iosIcSt11char_traitsIcEE5clearESt12_Ios_Iostate(ptr noundef nonnull align 8 dereferenceable(264) %9, i32 noundef %12)
          to label %_ZNSt14basic_ofstreamIcSt11char_traitsIcEE5closeEv.exit unwind label %13

_ZNSt14basic_ofstreamIcSt11char_traitsIcEE5closeEv.exit: ; preds = %.noexc, %5
  tail call void @_ZNSt14basic_ofstreamIcSt11char_traitsIcEED1Ev(ptr noundef nonnull align 8 dereferenceable(248) %2) #13
  ret void

13:                                               ; preds = %5, %1
  %14 = landingpad { ptr, i32 }
          catch ptr null
  %15 = extractvalue { ptr, i32 } %14, 0
  tail call void @__clang_call_terminate(ptr %15) #16
  unreachable
}